target datalayout = "e-m:e-p270:32:32-p271:32:32-p272:64:64-i64:64-i128:128-f80:128-n8:16:32:64-S128"
target triple = "x86_64-pc-linux-gnu"

@t_invalid_zero = internal global [4 x i8] c"0\02\02\00", align 1
@ASN1_UINT32_DATA_it.local_it = internal constant { i8, [7 x i8], i64, ptr, i64, ptr, i64, ptr } { i8 1, [7 x i8] zeroinitializer, i64 16, ptr @ASN1_UINT32_DATA_seq_tt, i64 1, ptr null, i64 4, ptr @.str.11 }, align 8

; Function Attrs: nounwind uwtable
define internal ptr @ASN1_UINT32_DATA_it() #0 {
  ret ptr @ASN1_UINT32_DATA_it.local_it
}

; Function Attrs: nounwind uwtable
define internal void @ASN1_UINT32_DATA_free(ptr noundef %0) #0 {
  %2 = alloca ptr, align 8
  store ptr %0, ptr %2, align 8, !tbaa !9
  %3 = load ptr, ptr %2, align 8, !tbaa !9
  %4 = call ptr @ASN1_UINT32_DATA_it()
  call void @ASN1_item_free(ptr noundef %3, ptr noundef %4)
  ret void
}

; Function Attrs: nounwind uwtable
define internal ptr @d2i_ASN1_UINT32_DATA(ptr noundef %0, ptr noundef %1, i64 noundef %2) #0 {
  %4 = alloca ptr, align 8
  %5 = alloca ptr, align 8
  %6 = alloca i64, align 8
  store ptr %0, ptr %4, align 8, !tbaa !9
  store ptr %1, ptr %5, align 8, !tbaa !16
  store i64 %2, ptr %6, align 8, !tbaa !18
  %7 = load ptr, ptr %4, align 8, !tbaa !9
  %8 = load ptr, ptr %5, align 8, !tbaa !16
  %9 = load i64, ptr %6, align 8, !tbaa !18
  %10 = call ptr @ASN1_UINT32_DATA_it()
  %11 = call ptr @ASN1_item_d2i(ptr noundef %7, ptr noundef %8, i64 noundef %9, ptr noundef %10)
  ret ptr %11
}

; Function Attrs: nounwind uwtable
define internal i32 @test_uint32() #0 {
  %1 = alloca i32, align 4
  %2 = alloca ptr, align 8
  %3 = alloca ptr, align 8
  %4 = alloca i32, align 4
  call void @llvm.lifetime.start.p0(i64 8, ptr %2) #4
  store ptr @t_invalid_zero, ptr %2, align 8, !tbaa !4
  call void @llvm.lifetime.start.p0(i64 8, ptr %3) #4
  %5 = call ptr @d2i_ASN1_UINT32_DATA(ptr noundef null, ptr noundef %2, i64 noundef 4)
  store ptr %5, ptr %3, align 8, !tbaa !9
  %6 = load ptr, ptr %3, align 8, !tbaa !9
  %7 = icmp eq ptr %6, null
  br i1 %7, label %8, label %9

8:                                                ; preds = %0
  store i32 0, ptr %1, align 4
  store i32 1, ptr %4, align 4
  br label %11

9:                                                ; preds = %0
  %10 = load ptr, ptr %3, align 8, !tbaa !9
  call void @ASN1_UINT32_DATA_free(ptr noundef %10)
  store i32 1, ptr %1, align 4
  store i32 1, ptr %4, align 4
  br label %11

11:                                               ; preds = %9, %8
  call void @llvm.lifetime.end.p0(i64 8, ptr %3) #4
  call void @llvm.lifetime.end.p0(i64 8, ptr %2) #4
  %12 = load i32, ptr %1, align 4
  ret i32 %12
}